; Function Attrs: mustprogress uwtable
define internal void @_ZL21cmCopyFileIfDifferentPKcS0_(ptr noundef %0, ptr noundef %1) #6 personality ptr @__gxx_personality_v0 {
  %3 = alloca %"class.std::__cxx11::basic_string", align 8
  %4 = alloca %"class.std::allocator", align 1
  %5 = alloca %"class.std::__cxx11::basic_string", align 8
  %6 = alloca %"class.std::allocator", align 1
  call void @_ZNSaIcEC1Ev(ptr noundef nonnull align 1 dereferenceable(1) %4) #30
  %7 = invoke noundef ptr @_ZNSt7__cxx1112basic_stringIcSt11char_traitsIcESaIcEE13_M_local_dataEv(ptr noundef nonnull align 8 dereferenceable(32) %3)
          to label %.noexc unwind label %27

.noexc:                                           ; preds = %2
  invoke void @_ZNSt7__cxx1112basic_stringIcSt11char_traitsIcESaIcEE12_Alloc_hiderC1EPcRKS3_(ptr noundef nonnull align 8 dereferenceable(8) %3, ptr noundef %7, ptr noundef nonnull align 1 dereferenceable(1) %4)
          to label %.noexc8 unwind label %27

.noexc8:                                          ; preds = %.noexc
  %8 = icmp eq ptr %0, null
  br i1 %8, label %9, label %13

9:                                                ; preds = %.noexc8
  invoke void @_ZSt19__throw_logic_errorPKc(ptr noundef nonnull @.str.14) #35
          to label %10 unwind label %11

10:                                               ; preds = %9
  unreachable

11:                                               ; preds = %13, %9
  %12 = landingpad { ptr, i32 }
          cleanup
  call void @_ZNSaIcED2Ev(ptr noundef nonnull align 1 dereferenceable(1) %3) #30
  br label %.body

13:                                               ; preds = %.noexc8
  %14 = call noundef i64 @strlen(ptr noundef nonnull dereferenceable(1) %0) #30
  %15 = getelementptr inbounds i8, ptr %0, i64 %14
  invoke void @_ZNSt7__cxx1112basic_stringIcSt11char_traitsIcESaIcEE12_M_constructIPKcEEvT_S8_St20forward_iterator_tag(ptr noundef nonnull align 8 dereferenceable(32) %3, ptr noundef nonnull %0, ptr noundef nonnull %15)
          to label %_ZNSt7__cxx1112basic_stringIcSt11char_traitsIcESaIcEEC2IS3_EEPKcRKS3_.exit unwind label %11

_ZNSt7__cxx1112basic_stringIcSt11char_traitsIcESaIcEEC2IS3_EEPKcRKS3_.exit: ; preds = %13
  call void @_ZNSaIcEC1Ev(ptr noundef nonnull align 1 dereferenceable(1) %6) #30
  %16 = invoke noundef ptr @_ZNSt7__cxx1112basic_stringIcSt11char_traitsIcESaIcEE13_M_local_dataEv(ptr noundef nonnull align 8 dereferenceable(32) %5)
          to label %.noexc9 unwind label %29

.noexc9:                                          ; preds = %_ZNSt7__cxx1112basic_stringIcSt11char_traitsIcESaIcEEC2IS3_EEPKcRKS3_.exit
  invoke void @_ZNSt7__cxx1112basic_stringIcSt11char_traitsIcESaIcEE12_Alloc_hiderC1EPcRKS3_(ptr noundef nonnull align 8 dereferenceable(8) %5, ptr noundef %16, ptr noundef nonnull align 1 dereferenceable(1) %6)
          to label %.noexc10 unwind label %29

.noexc10:                                         ; preds = %.noexc9
  %17 = icmp eq ptr %1, null
  br i1 %17, label %18, label %22

18:                                               ; preds = %.noexc10
  invoke void @_ZSt19__throw_logic_errorPKc(ptr noundef nonnull @.str.14) #35
          to label %19 unwind label %20

19:                                               ; preds = %18
  unreachable

20:                                               ; preds = %22, %18
  %21 = landingpad { ptr, i32 }
          cleanup
  call void @_ZNSaIcED2Ev(ptr noundef nonnull align 1 dereferenceable(1) %5) #30
  br label %.body11

22:                                               ; preds = %.noexc10
  %23 = call noundef i64 @strlen(ptr noundef nonnull dereferenceable(1) %1) #30
  %24 = getelementptr inbounds i8, ptr %1, i64 %23
  invoke void @_ZNSt7__cxx1112basic_stringIcSt11char_traitsIcESaIcEE12_M_constructIPKcEEvT_S8_St20forward_iterator_tag(ptr noundef nonnull align 8 dereferenceable(32) %5, ptr noundef nonnull %1, ptr noundef nonnull %24)
          to label %_ZNSt7__cxx1112basic_stringIcSt11char_traitsIcESaIcEEC2IS3_EEPKcRKS3_.exit13 unwind label %20

_ZNSt7__cxx1112basic_stringIcSt11char_traitsIcESaIcEEC2IS3_EEPKcRKS3_.exit13: ; preds = %22
  %25 = invoke { i64, i32 } @_ZN5cmsys11SystemTools19CopyFileIfDifferentERKNSt7__cxx1112basic_stringIcSt11char_traitsIcESaIcEEES8_(ptr noundef nonnull align 8 dereferenceable(32) %3, ptr noundef nonnull align 8 dereferenceable(32) %5)
          to label %26 unwind label %31

26:                                               ; preds = %_ZNSt7__cxx1112basic_stringIcSt11char_traitsIcESaIcEEC2IS3_EEPKcRKS3_.exit13
  call void @_ZNSt7__cxx1112basic_stringIcSt11char_traitsIcESaIcEED1Ev(ptr noundef nonnull align 8 dereferenceable(32) %5) #30
  call void @_ZNSaIcED1Ev(ptr noundef nonnull align 1 dereferenceable(1) %6) #30
  call void @_ZNSt7__cxx1112basic_stringIcSt11char_traitsIcESaIcEED1Ev(ptr noundef nonnull align 8 dereferenceable(32) %3) #30
  call void @_ZNSaIcED1Ev(ptr noundef nonnull align 1 dereferenceable(1) %4) #30
  ret void

27:                                               ; preds = %.noexc, %2
  %28 = landingpad { ptr, i32 }
          cleanup
  br label %.body

29:                                               ; preds = %.noexc9, %_ZNSt7__cxx1112basic_stringIcSt11char_traitsIcESaIcEEC2IS3_EEPKcRKS3_.exit
  %30 = landingpad { ptr, i32 }
          cleanup
  br label %.body11

31:                                               ; preds = %_ZNSt7__cxx1112basic_stringIcSt11char_traitsIcESaIcEEC2IS3_EEPKcRKS3_.exit13
  %32 = landingpad { ptr, i32 }
          cleanup
  call void @_ZNSt7__cxx1112basic_stringIcSt11char_traitsIcESaIcEED1Ev(ptr noundef nonnull align 8 dereferenceable(32) %5) #30
  br label %.body11

.body11:                                          ; preds = %29, %20, %31
  %.pn = phi { ptr, i32 } [ %32, %31 ], [ %30, %29 ], [ %21, %20 ]
  call void @_ZNSaIcED1Ev(ptr noundef nonnull align 1 dereferenceable(1) %6) #30
  call void @_ZNSt7__cxx1112basic_stringIcSt11char_traitsIcESaIcEED1Ev(ptr noundef nonnull align 8 dereferenceable(32) %3) #30
  br label %.body

.body:                                            ; preds = %27, %11, %.body11
  %.pn.pn = phi { ptr, i32 } [ %.pn, %.body11 ], [ %28, %27 ], [ %12, %11 ]
  call void @_ZNSaIcED1Ev(ptr noundef nonnull align 1 dereferenceable(1) %4) #30
  resume { ptr, i32 } %.pn.pn
}